(dp0
cnumpy.core.multiarray
scalar
p1
(cnumpy
dtype
p2
(S'f8'
p3
I0
I1
tp4
Rp5
(I3
S'<'
p6
NNNI-1
I-1
I0
tp7
bS'\x00\x00\x00\x00\x00\x00\x00\x00'
p8
tp9
Rp10
(lp11
(g1
(g5
S'Cy\r\xe55\x94M@'
p12
tp13
Rp14
F26.215867194227563
tp15
a(g1
(g5
S'\xa2\xbc\x86\xf2\x1a\xca\x0b@'
p16
tp17
Rp18
F1.6063529635568077
tp19
asg1
(g5
S'\x00\x00\x00\x00\x00\x00\xf0?'
p20
tp21
Rp22
(lp23
(g1
(g5
S'C\xb0\x8e6\xef\xd3D@'
p24
tp25
Rp26
F17.151176097575775
tp27
a(g1
(g5
S'2\x04\xebh\xf3>\r@'
p28
tp29
Rp30
F1.7784379466415587
tp31
as.